Certificate:
    Data:
        Version: 3 (0x2)
        Serial Number: 1 (0x1)
        Signature Algorithm: sha1WithRSAEncryption
        Issuer: C=US, ST=Nowheres, L=Stomper, O=Stomper Testing, OU=CA Testing, CN=Stomper CA
        Validity
            Not Before: Feb 21 16:50:01 2011 GMT
            Not After : Feb 18 16:50:01 2021 GMT
        Subject: C=US, ST=Nowheres, O=Stomper Testing, OU=SSL Testing, CN=My Broker
        Subject Public Key Info:
            Public Key Algorithm: rsaEncryption
                Public-Key: (2048 bit)
                Modulus:
                    00:eb:dd:be:2d:87:54:13:ce:4c:e1:bd:c9:c8:e0:
                    18:b0:50:f1:30:c8:6e:22:7a:bc:c6:ea:3f:e2:c4:
                    24:d9:8c:41:94:54:d4:e0:7b:5c:6c:dd:bd:41:8f:
                    bd:aa:98:c2:f0:e9:13:7e:36:5a:97:57:e4:6a:04:
                    08:aa:12:2b:68:4b:9d:5a:40:92:41:57:5b:2e:d2:
                    e1:f4:f8:c4:31:dd:6c:2d:4c:12:ab:80:72:71:39:
                    4e:aa:14:b8:f6:35:e8:07:9f:a2:a3:b8:a6:08:8d:
                    60:d5:53:01:38:8c:aa:17:e9:b0:b3:8c:e3:d9:4d:
                    14:02:da:9a:ff:6f:5b:65:ba:c3:56:80:b0:de:8e:
                    c8:25:3f:1b:a0:ac:80:1c:38:e0:77:4e:c6:5d:92:
                    44:97:c3:f8:ba:9a:02:83:a8:1b:57:3b:38:d6:7d:
                    7f:95:86:f4:c2:de:51:d0:ee:a1:30:b4:39:9a:f6:
                    58:03:62:93:94:a5:72:72:a2:5c:7e:cf:54:7f:57:
                    92:46:f8:f7:b1:79:56:20:bd:95:25:d5:11:5d:c0:
                    5c:c7:cd:cf:44:8f:88:68:e1:6f:c0:ca:2e:db:fc:
                    d0:19:82:36:b1:3f:20:82:df:ce:a6:55:44:02:51:
                    8b:6c:4f:a1:26:b3:41:e8:0b:a8:0c:8f:67:65:92:
                    ee:df
                Exponent: 65537 (0x10001)
        X509v3 extensions:
            X509v3 Basic Constraints: 
                CA:FALSE
            Netscape Comment: 
                OpenSSL Generated Certificate
            X509v3 Subject Key Identifier: 
                5C:28:4D:B8:A3:D7:CB:43:2C:1C:DB:0F:7B:75:99:85:44:4E:D8:A1
            X509v3 Authority Key Identifier: 
                keyid:7C:4F:50:BF:C6:57:97:6B:D9:1C:F1:92:EF:B5:66:47:94:79:15:74

    Signature Algorithm: sha1WithRSAEncryption
        51:2f:da:d1:a4:9f:97:77:00:69:bb:04:85:34:75:bd:2e:ad:
        45:83:a7:95:f1:83:5d:52:1e:65:79:ee:5b:a0:f5:7b:82:53:
        88:c3:fc:89:c8:4f:68:4e:80:8a:cb:53:4f:44:a8:6d:8c:be:
        be:74:19:ff:75:52:14:3b:70:42:87:cf:fc:90:58:7e:c9:cd:
        d4:a2:b8:15:74:e8:51:ce:9c:73:ca:a5:29:76:4a:f3:a4:26:
        f3:70:c5:8e:5f:cf:fe:7d:81:de:43:9e:36:c0:87:7b:66:02:
        7f:02:2d:64:48:19:be:74:4a:27:cd:c5:56:c5:ff:96:1a:02:
        3a:2f
-----BEGIN CERTIFICATE-----
MIIDTzCCArigAwIBAgIBATANBgkqhkiG9w0BAQUFADB2MQswCQYDVQQGEwJVUzER
MA8GA1UECAwITm93aGVyZXMxEDAOBgNVBAcMB1N0b21wZXIxGDAWBgNVBAoMD1N0
b21wZXIgVGVzdGluZzETMBEGA1UECwwKQ0EgVGVzdGluZzETMBEGA1UEAwwKU3Rv
bXBlciBDQTAeFw0xMTAyMjExNjUwMDFaFw0yMTAyMTgxNjUwMDFaMGQxCzAJBgNV
BAYTAlVTMREwDwYDVQQIDAhOb3doZXJlczEYMBYGA1UECgwPU3RvbXBlciBUZXN0
aW5nMRQwEgYDVQQLDAtTU0wgVGVzdGluZzESMBAGA1UEAwwJTXkgQnJva2VyMIIB
IjANBgkqhkiG9w0BAQEFAAOCAQ8AMIIBCgKCAQEA692+LYdUE85M4b3JyOAYsFDx
MMhuInq8xuo/4sQk2YxBlFTU4HtcbN29QY+9qpjC8OkTfjZal1fkagQIqhIraEud
WkCSQVdbLtLh9PjEMd1sLUwSq4BycTlOqhS49jXoB5+io7imCI1g1VMBOIyqF+mw
s4zj2U0UAtqa/29bZbrDVoCw3o7IJT8boKyAHDjgd07GXZJEl8P4upoCg6gbVzs4
1n1/lYb0wt5R0O6hMLQ5mvZYA2KTlKVycqJcfs9Uf1eSRvj3sXlWIL2VJdURXcBc
x83PRI+IaOFvwMou2/zQGYI2sT8ggt/OplVEAlGLbE+hJrNB6AuoDI9nZZLu3wID
AQABo3sweTAJBgNVHRMEAjAAMCwGCWCGSAGG+EIBDQQfFh1PcGVuU1NMIEdlbmVy
YXRlZCBDZXJ0aWZpY2F0ZTAdBgNVHQ4EFgQUXChNuKPXy0MsHNsPe3WZhURO2KEw
HwYDVR0jBBgwFoAUfE9Qv8ZXl2vZHPGS77VmR5R5FXQwDQYJKoZIhvcNAQEFBQAD
gYEAUS/a0aSfl3cAabsEhTR1vS6tRYOnlfGDXVIeZXnuW6D1e4JTiMP8ichPaE6A
istTT0SobYy+vnQZ/3VSFDtwQofP/JBYfsnN1KK4FXToUc6cc8qlKXZK86Qm83DF
jl/P/n2B3kOeNsCHe2YCfwItZEgZvnRKJ83FVsX/lhoCOi8=
-----END CERTIFICATE-----
