Certificate:
    Data:
        Version: 3 (0x2)
        Serial Number: 2 (0x2)
        Signature Algorithm: sha1WithRSAEncryption
        Issuer: C=US, ST=Nowheres, L=Stomper, O=Stomper Testing, OU=CA Testing, CN=Stomper CA
        Validity
            Not Before: Feb 21 16:57:25 2011 GMT
            Not After : Feb 18 16:57:25 2021 GMT
        Subject: C=US, ST=Nowheres, O=Stomper Testing, OU=SSL Testing, CN=My Client
        Subject Public Key Info:
            Public Key Algorithm: rsaEncryption
                Public-Key: (2048 bit)
                Modulus:
                    00:af:62:ad:ea:0b:2b:3d:a6:0e:e3:4a:b2:b5:ba:
                    32:a5:ab:5f:f2:f0:5a:83:22:4c:ff:05:9d:be:25:
                    bb:68:61:f5:56:2e:22:9c:2b:f9:3b:a2:97:37:aa:
                    37:17:40:cd:12:97:76:73:19:24:c5:59:78:45:45:
                    5d:2b:9c:df:e9:d2:56:d7:5c:b9:ca:53:73:a1:62:
                    70:df:52:af:fb:7d:6b:b7:68:7a:08:68:e8:4a:ab:
                    5a:e9:e6:a4:cd:38:9d:2e:55:51:11:48:3c:2b:57:
                    a8:55:37:42:11:0c:e9:2c:e7:79:d3:4c:c8:2e:9e:
                    92:4a:dc:8b:66:79:bf:62:e0:75:49:d7:37:62:4e:
                    3a:47:7a:c0:2f:75:8c:28:70:50:88:24:ae:7a:eb:
                    2f:a6:77:60:64:77:0d:e2:c2:4e:e5:62:05:fa:27:
                    20:5c:53:72:80:16:e6:af:f5:35:5a:a9:6a:5f:60:
                    05:2a:d8:fe:a9:a4:2d:aa:c4:81:35:fc:51:8a:7c:
                    9f:0c:40:ea:40:61:87:ec:0a:60:39:44:2e:b0:f6:
                    77:79:01:b6:bf:15:d2:65:cd:6a:e4:21:05:59:53:
                    d9:6a:e7:37:ea:ce:a3:b1:cf:c3:70:fc:2c:40:3d:
                    12:bf:f9:84:32:ca:83:c6:e5:3d:aa:28:ff:78:9d:
                    03:17
                Exponent: 65537 (0x10001)
        X509v3 extensions:
            X509v3 Basic Constraints: 
                CA:FALSE
            Netscape Comment: 
                OpenSSL Generated Certificate
            X509v3 Subject Key Identifier: 
                7A:FC:5D:4F:48:8F:41:43:EA:E5:A6:14:2D:30:19:E5:63:70:43:5C
            X509v3 Authority Key Identifier: 
                keyid:7C:4F:50:BF:C6:57:97:6B:D9:1C:F1:92:EF:B5:66:47:94:79:15:74

    Signature Algorithm: sha1WithRSAEncryption
        75:80:be:12:d8:7d:64:78:1f:62:97:a9:cd:0a:84:89:15:43:
        ca:5b:a3:72:77:73:f1:aa:06:59:15:75:0b:1b:7d:79:c3:9f:
        d5:3d:e5:70:df:64:ec:a4:27:d9:a3:49:02:b0:75:89:bd:dc:
        9b:c4:79:33:14:38:93:2b:d8:3c:01:e6:d0:2a:56:06:6a:ba:
        49:56:5a:f7:6c:49:dd:b0:5c:49:be:68:09:7d:75:2e:9f:49:
        ed:e1:1e:49:6b:f1:cc:1c:1c:be:1e:ac:a9:ee:44:7b:15:32:
        e0:b1:a6:9c:48:a4:1c:5a:55:66:0f:86:95:c0:02:e8:b7:a8:
        b9:9d
-----BEGIN CERTIFICATE-----
MIIDTzCCArigAwIBAgIBAjANBgkqhkiG9w0BAQUFADB2MQswCQYDVQQGEwJVUzER
MA8GA1UECAwITm93aGVyZXMxEDAOBgNVBAcMB1N0b21wZXIxGDAWBgNVBAoMD1N0
b21wZXIgVGVzdGluZzETMBEGA1UECwwKQ0EgVGVzdGluZzETMBEGA1UEAwwKU3Rv
bXBlciBDQTAeFw0xMTAyMjExNjU3MjVaFw0yMTAyMTgxNjU3MjVaMGQxCzAJBgNV
BAYTAlVTMREwDwYDVQQIDAhOb3doZXJlczEYMBYGA1UECgwPU3RvbXBlciBUZXN0
aW5nMRQwEgYDVQQLDAtTU0wgVGVzdGluZzESMBAGA1UEAwwJTXkgQ2xpZW50MIIB
IjANBgkqhkiG9w0BAQEFAAOCAQ8AMIIBCgKCAQEAr2Kt6gsrPaYO40qytboypatf
8vBagyJM/wWdviW7aGH1Vi4inCv5O6KXN6o3F0DNEpd2cxkkxVl4RUVdK5zf6dJW
11y5ylNzoWJw31Kv+31rt2h6CGjoSqta6eakzTidLlVREUg8K1eoVTdCEQzpLOd5
00zILp6SStyLZnm/YuB1Sdc3Yk46R3rAL3WMKHBQiCSueusvpndgZHcN4sJO5WIF
+icgXFNygBbmr/U1WqlqX2AFKtj+qaQtqsSBNfxRinyfDEDqQGGH7ApgOUQusPZ3
eQG2vxXSZc1q5CEFWVPZauc36s6jsc/DcPwsQD0Sv/mEMsqDxuU9qij/eJ0DFwID
AQABo3sweTAJBgNVHRMEAjAAMCwGCWCGSAGG+EIBDQQfFh1PcGVuU1NMIEdlbmVy
YXRlZCBDZXJ0aWZpY2F0ZTAdBgNVHQ4EFgQUevxdT0iPQUPq5aYULTAZ5WNwQ1ww
HwYDVR0jBBgwFoAUfE9Qv8ZXl2vZHPGS77VmR5R5FXQwDQYJKoZIhvcNAQEFBQAD
gYEAdYC+Eth9ZHgfYpepzQqEiRVDylujcndz8aoGWRV1Cxt9ecOf1T3lcN9k7KQn
2aNJArB1ib3cm8R5MxQ4kyvYPAHm0CpWBmq6SVZa92xJ3bBcSb5oCX11Lp9J7eEe
SWvxzBwcvh6sqe5EexUy4LGmnEikHFpVZg+GlcAC6LeouZ0=
-----END CERTIFICATE-----
